; Function Attrs: mustprogress nounwind uwtable
define void @_ZN7glslang13TIntermediate5errorER9TInfoSinkPKc11EShLanguage(ptr nocapture noundef nonnull align 8 dereferenceable(2024) %0, ptr noundef nonnull align 8 dereferenceable(96) %1, ptr noundef %2, i32 noundef %3) local_unnamed_addr #0 align 2 {
  tail call void @_ZN7glslang13TInfoSinkBase6appendEPKc(ptr noundef nonnull align 8 dereferenceable(48) %1, ptr noundef nonnull @.str.129) #18
  %5 = icmp slt i32 %3, 14
  tail call void @_ZN7glslang13TInfoSinkBase6appendEPKc(ptr noundef nonnull align 8 dereferenceable(48) %1, ptr noundef nonnull @.str) #18
  %6 = load i32, ptr %0, align 8
  %7 = tail call ptr @StageName(i32 noundef %6) #18
  tail call void @_ZN7glslang13TInfoSinkBase6appendEPKc(ptr noundef nonnull align 8 dereferenceable(48) %1, ptr noundef %7) #18
  br i1 %5, label %8, label %10

8:                                                ; preds = %4
  tail call void @_ZN7glslang13TInfoSinkBase6appendEPKc(ptr noundef nonnull align 8 dereferenceable(48) %1, ptr noundef nonnull @.str.1) #18
  %9 = tail call ptr @StageName(i32 noundef %3) #18
  tail call void @_ZN7glslang13TInfoSinkBase6appendEPKc(ptr noundef nonnull align 8 dereferenceable(48) %1, ptr noundef %9) #18
  br label %10

10:                                               ; preds = %4, %8
  %.str.4.sink = phi ptr [ @.str.2, %8 ], [ @.str.4, %4 ]
  tail call void @_ZN7glslang13TInfoSinkBase6appendEPKc(ptr noundef nonnull align 8 dereferenceable(48) %1, ptr noundef nonnull %.str.4.sink) #18
  tail call void @_ZN7glslang13TInfoSinkBase6appendEPKc(ptr noundef nonnull align 8 dereferenceable(48) %1, ptr noundef %2) #18
  tail call void @_ZN7glslang13TInfoSinkBase6appendEPKc(ptr noundef nonnull align 8 dereferenceable(48) %1, ptr noundef nonnull @.str.3) #18
  %11 = getelementptr inbounds i8, ptr %0, i64 612
  %12 = load i32, ptr %11, align 4
  %13 = add nsw i32 %12, 1
  store i32 %13, ptr %11, align 4
  ret void
}